target datalayout = "e-m:e-p270:32:32-p271:32:32-p272:64:64-i64:64-i128:128-f80:128-n8:16:32:64-S128"
target triple = "x86_64-pc-linux-gnu"

%struct.ExpireMeta = type { i32, i16, i16, ptr }

@mstrFieldKind = dso_local global { ptr, <{ i32, [15 x i32] }> } { ptr @.str, <{ i32, [15 x i32] }> <{ i32 16, [15 x i32] zeroinitializer }> }, align 8

; Function Attrs: nounwind uwtable
define internal ptr @_hfieldNew(ptr noundef %0, i64 noundef %1, i32 noundef %2, i32 noundef %3) #1 {
  %5 = alloca ptr, align 8
  %6 = alloca ptr, align 8
  %7 = alloca i64, align 8
  %8 = alloca i32, align 4
  %9 = alloca i32, align 4
  %10 = alloca ptr, align 8
  %11 = alloca i32, align 4
  %12 = alloca ptr, align 8
  store ptr %0, ptr %6, align 8, !tbaa !10
  store i64 %1, ptr %7, align 8, !tbaa !31
  store i32 %2, ptr %8, align 4, !tbaa !13
  store i32 %3, ptr %9, align 4, !tbaa !13
  %13 = load i32, ptr %8, align 4, !tbaa !13
  %14 = icmp ne i32 %13, 0
  br i1 %14, label %20, label %15

15:                                               ; preds = %4
  %16 = load ptr, ptr %6, align 8, !tbaa !10
  %17 = load i64, ptr %7, align 8, !tbaa !31
  %18 = load i32, ptr %9, align 4, !tbaa !13
  %19 = call ptr @mstrNew(ptr noundef %16, i64 noundef %17, i32 noundef %18)
  store ptr %19, ptr %5, align 8
  br label %38

20:                                               ; preds = %4
  call void @llvm.lifetime.start.p0(i64 8, ptr %10) #12
  %21 = load ptr, ptr %6, align 8, !tbaa !10
  %22 = load i64, ptr %7, align 8, !tbaa !31
  %23 = load i32, ptr %9, align 4, !tbaa !13
  %24 = call ptr @mstrNewWithMeta(ptr noundef @mstrFieldKind, ptr noundef %21, i64 noundef %22, i16 noundef zeroext 1, i32 noundef %23)
  store ptr %24, ptr %10, align 8, !tbaa !33
  %25 = load ptr, ptr %10, align 8, !tbaa !33
  %26 = icmp ne ptr %25, null
  br i1 %26, label %28, label %27

27:                                               ; preds = %20
  store ptr null, ptr %5, align 8
  store i32 1, ptr %11, align 4
  br label %37

28:                                               ; preds = %20
  call void @llvm.lifetime.start.p0(i64 8, ptr %12) #12
  %29 = load ptr, ptr %10, align 8, !tbaa !33
  %30 = call ptr @mstrMetaRef(ptr noundef %29, ptr noundef @mstrFieldKind, i32 noundef 0)
  store ptr %30, ptr %12, align 8, !tbaa !72
  %31 = load ptr, ptr %12, align 8, !tbaa !72
  %32 = getelementptr inbounds nuw %struct.ExpireMeta, ptr %31, i32 0, i32 2
  %33 = load i16, ptr %32, align 2
  %34 = and i16 %33, -257
  %35 = or i16 %34, 256
  store i16 %35, ptr %32, align 2
  %36 = load ptr, ptr %10, align 8, !tbaa !33
  store ptr %36, ptr %5, align 8
  store i32 1, ptr %11, align 4
  call void @llvm.lifetime.end.p0(i64 8, ptr %12) #12
  br label %37

37:                                               ; preds = %28, %27
  call void @llvm.lifetime.end.p0(i64 8, ptr %10) #12
  br label %38

38:                                               ; preds = %37, %15
  %39 = load ptr, ptr %5, align 8
  ret ptr %39
}

; Function Attrs: nounwind uwtable
define dso_local ptr @hfieldNew(ptr noundef %0, i64 noundef %1, i32 noundef %2) #1 {
  %4 = alloca ptr, align 8
  %5 = alloca i64, align 8
  %6 = alloca i32, align 4
  store ptr %0, ptr %4, align 8, !tbaa !10
  store i64 %1, ptr %5, align 8, !tbaa !31
  store i32 %2, ptr %6, align 4, !tbaa !13
  %7 = load ptr, ptr %4, align 8, !tbaa !10
  %8 = load i64, ptr %5, align 8, !tbaa !31
  %9 = load i32, ptr %6, align 4, !tbaa !13
  %10 = call ptr @_hfieldNew(ptr noundef %7, i64 noundef %8, i32 noundef %9, i32 noundef 0)
  ret ptr %10
}