; Function Attrs: nounwind uwtable
define dso_local ptr @hfieldNew(ptr noundef %0, i64 noundef %1, i32 noundef %2) local_unnamed_addr #1 {
  %.not.i = icmp eq i32 %2, 0
  br i1 %.not.i, label %4, label %6

4:                                                ; preds = %3
  %5 = tail call ptr @mstrNew(ptr noundef %0, i64 noundef %1, i32 noundef 0) #16
  br label %_hfieldNew.exit

6:                                                ; preds = %3
  %7 = tail call ptr @mstrNewWithMeta(ptr noundef nonnull @mstrFieldKind, ptr noundef %0, i64 noundef %1, i16 noundef zeroext 1, i32 noundef 0) #16
  %.not12.i = icmp eq ptr %7, null
  br i1 %.not12.i, label %_hfieldNew.exit, label %8

8:                                                ; preds = %6
  %9 = tail call ptr @mstrMetaRef(ptr noundef nonnull %7, ptr noundef nonnull @mstrFieldKind, i32 noundef 0) #16
  %10 = getelementptr inbounds nuw i8, ptr %9, i64 6
  %11 = load i16, ptr %10, align 2
  %12 = or i16 %11, 256
  store i16 %12, ptr %10, align 2
  br label %_hfieldNew.exit

_hfieldNew.exit:                                  ; preds = %4, %6, %8
  %.0.i = phi ptr [ %5, %4 ], [ %7, %8 ], [ null, %6 ]
  ret ptr %.0.i
}